	.section	__TEXT,__text,regular,pure_instructions
	.build_version macos, 14, 0	sdk_version 14, 4
	.file	1 "/Users/ashadahmed/fun/Fundamentals-of-Operating-Systems/anatomy-of-a-process/understanding-the-assembly" "../heap.c"
	.globl	_pass_cp                        ; -- Begin function pass_cp
	.p2align	2
_pass_cp:                               ; @pass_cp
Lfunc_begin0:
	.loc	1 21 0                          ; ../heap.c:21:0
	.cfi_startproc
; %bb.0:
	sub	sp, sp, #32
	.cfi_def_cfa_offset 32
	stp	x29, x30, [sp, #16]             ; 16-byte Folded Spill
	add	x29, sp, #16
	.cfi_def_cfa w29, 16
	.cfi_offset w30, -8
	.cfi_offset w29, -16
	stur	w0, [x29, #-4]
	mov	w8, #100
Ltmp0:
	.loc	1 22 10 prologue_end            ; ../heap.c:22:10
	stur	w8, [x29, #-4]
	.loc	1 24 5                          ; ../heap.c:24:5
	mov	x9, sp
	adrp	x8, l_.str.1@PAGE
	add	x8, x8, l_.str.1@PAGEOFF
	str	x8, [x9]
	adrp	x0, l_.str@PAGE
	add	x0, x0, l_.str@PAGEOFF
	bl	_printf
	.loc	1 25 20                         ; ../heap.c:25:20
	ldur	w9, [x29, #-4]
                                        ; implicit-def: $x8
	mov	x8, x9
	.loc	1 25 5 is_stmt 0                ; ../heap.c:25:5
	mov	x9, sp
	str	x8, [x9]
	adrp	x0, l_.str.2@PAGE
	add	x0, x0, l_.str.2@PAGEOFF
	bl	_printf
	.loc	1 26 1 is_stmt 1                ; ../heap.c:26:1
	ldp	x29, x30, [sp, #16]             ; 16-byte Folded Reload
	add	sp, sp, #32
	ret
Ltmp1:
Lfunc_end0:
	.cfi_endproc
                                        ; -- End function
	.globl	_main                           ; -- Begin function main
	.p2align	2
_main:                                  ; @main
Lfunc_begin1:
	.loc	1 28 0                          ; ../heap.c:28:0
	.cfi_startproc
; %bb.0:
	sub	sp, sp, #32
	.cfi_def_cfa_offset 32
	stp	x29, x30, [sp, #16]             ; 16-byte Folded Spill
	add	x29, sp, #16
	.cfi_def_cfa w29, 16
	.cfi_offset w30, -8
	.cfi_offset w29, -16
	mov	x0, #16
Ltmp2:
	.loc	1 52 53 prologue_end            ; ../heap.c:52:53
	bl	_malloc
	.loc	1 52 25 is_stmt 0               ; ../heap.c:52:25
	str	x0, [sp, #8]
	mov	w0, #0
	.loc	1 55 1 is_stmt 1                ; ../heap.c:55:1
	ldp	x29, x30, [sp, #16]             ; 16-byte Folded Reload
	add	sp, sp, #32
	ret
Ltmp3:
Lfunc_end1:
	.cfi_endproc
                                        ; -- End function
	.section	__TEXT,__cstring,cstring_literals
l_.str:                                 ; @.str
	.asciz	"%s\n"

l_.str.1:                               ; @.str.1
	.asciz	"pass_cp"

l_.str.2:                               ; @.str.2
	.asciz	"%d\n"
